; Function Attrs: mustprogress nounwind willreturn uwtable
define dso_local void @expr_yypop_buffer_state(ptr noundef captures(none) %0) local_unnamed_addr #7 {
  %2 = getelementptr inbounds nuw i8, ptr %0, i64 40
  %3 = load ptr, ptr %2, align 8
  %.not = icmp eq ptr %3, null
  br i1 %.not, label %41, label %4

4:                                                ; preds = %1
  %5 = getelementptr inbounds nuw i8, ptr %0, i64 24
  %6 = load i64, ptr %5, align 8
  %7 = getelementptr inbounds nuw ptr, ptr %3, i64 %6
  %8 = load ptr, ptr %7, align 8
  %.not20 = icmp eq ptr %8, null
  br i1 %.not20, label %41, label %.thread.i

.thread.i:                                        ; preds = %4
  store ptr null, ptr %7, align 8
  %9 = getelementptr inbounds nuw i8, ptr %8, i64 32
  %10 = load i32, ptr %9, align 8
  %.not15.i = icmp eq i32 %10, 0
  br i1 %.not15.i, label %expr_yy_delete_buffer.exit, label %11

11:                                               ; preds = %.thread.i
  %12 = getelementptr inbounds nuw i8, ptr %8, i64 8
  %13 = load ptr, ptr %12, align 8
  tail call void @free(ptr noundef %13) #32
  br label %expr_yy_delete_buffer.exit

expr_yy_delete_buffer.exit:                       ; preds = %.thread.i, %11
  tail call void @free(ptr noundef nonnull %8) #32
  %14 = load ptr, ptr %2, align 8
  %15 = load i64, ptr %5, align 8
  %16 = getelementptr inbounds nuw ptr, ptr %14, i64 %15
  store ptr null, ptr %16, align 8
  %17 = load i64, ptr %5, align 8
  %.not21 = icmp eq i64 %17, 0
  br i1 %.not21, label %20, label %18

18:                                               ; preds = %expr_yy_delete_buffer.exit
  %19 = add i64 %17, -1
  store i64 %19, ptr %5, align 8
  br label %20

20:                                               ; preds = %18, %expr_yy_delete_buffer.exit
  %21 = phi i64 [ %19, %18 ], [ 0, %expr_yy_delete_buffer.exit ]
  %22 = load ptr, ptr %2, align 8
  %.not22 = icmp eq ptr %22, null
  br i1 %.not22, label %41, label %23

23:                                               ; preds = %20
  %24 = getelementptr inbounds nuw ptr, ptr %22, i64 %21
  %25 = load ptr, ptr %24, align 8
  %.not23 = icmp eq ptr %25, null
  br i1 %.not23, label %41, label %26

26:                                               ; preds = %23
  %27 = getelementptr inbounds nuw i8, ptr %25, i64 28
  %28 = load i32, ptr %27, align 4
  %29 = getelementptr inbounds nuw i8, ptr %0, i64 52
  store i32 %28, ptr %29, align 4
  %30 = load ptr, ptr %24, align 8
  %31 = getelementptr inbounds nuw i8, ptr %30, i64 16
  %32 = load ptr, ptr %31, align 8
  %33 = getelementptr inbounds nuw i8, ptr %0, i64 64
  store ptr %32, ptr %33, align 8
  %34 = getelementptr inbounds nuw i8, ptr %0, i64 128
  store ptr %32, ptr %34, align 8
  %35 = load ptr, ptr %24, align 8
  %36 = load ptr, ptr %35, align 8
  %37 = getelementptr inbounds nuw i8, ptr %0, i64 8
  store ptr %36, ptr %37, align 8
  %38 = load i8, ptr %32, align 1
  %39 = getelementptr inbounds nuw i8, ptr %0, i64 48
  store i8 %38, ptr %39, align 8
  %40 = getelementptr inbounds nuw i8, ptr %0, i64 80
  store i32 1, ptr %40, align 8
  br label %41

41:                                               ; preds = %23, %26, %20, %4, %1
  ret void
}